target datalayout = "e-m:e-p270:32:32-p271:32:32-p272:64:64-i64:64-i128:128-f80:128-n8:16:32:64-S128"
target triple = "x86_64-pc-linux-gnu"

%struct.Kit_Graph_t_ = type { i32, i32, i32, i32, ptr, %struct.Kit_Edge_t_ }
%struct.Kit_Edge_t_ = type { i32 }

; Function Attrs: nounwind uwtable
define ptr @Kit_GraphCreate(i32 noundef %0) #0 {
  %2 = alloca i32, align 4
  %3 = alloca ptr, align 8
  store i32 %0, ptr %2, align 4, !tbaa !3
  call void @llvm.lifetime.start.p0(i64 8, ptr %3) #13
  %4 = call noalias ptr @malloc(i64 noundef 32) #14
  store ptr %4, ptr %3, align 8, !tbaa !7
  %5 = load ptr, ptr %3, align 8, !tbaa !7
  call void @llvm.memset.p0.i64(ptr align 8 %5, i8 0, i64 32, i1 false)
  %6 = load i32, ptr %2, align 4, !tbaa !3
  %7 = load ptr, ptr %3, align 8, !tbaa !7
  %8 = getelementptr inbounds nuw %struct.Kit_Graph_t_, ptr %7, i32 0, i32 1
  store i32 %6, ptr %8, align 4, !tbaa !10
  %9 = load i32, ptr %2, align 4, !tbaa !3
  %10 = load ptr, ptr %3, align 8, !tbaa !7
  %11 = getelementptr inbounds nuw %struct.Kit_Graph_t_, ptr %10, i32 0, i32 2
  store i32 %9, ptr %11, align 8, !tbaa !14
  %12 = load i32, ptr %2, align 4, !tbaa !3
  %13 = mul nsw i32 2, %12
  %14 = add nsw i32 %13, 50
  %15 = load ptr, ptr %3, align 8, !tbaa !7
  %16 = getelementptr inbounds nuw %struct.Kit_Graph_t_, ptr %15, i32 0, i32 3
  store i32 %14, ptr %16, align 4, !tbaa !15
  %17 = load ptr, ptr %3, align 8, !tbaa !7
  %18 = getelementptr inbounds nuw %struct.Kit_Graph_t_, ptr %17, i32 0, i32 3
  %19 = load i32, ptr %18, align 4, !tbaa !15
  %20 = sext i32 %19 to i64
  %21 = mul i64 24, %20
  %22 = call noalias ptr @malloc(i64 noundef %21) #14
  %23 = load ptr, ptr %3, align 8, !tbaa !7
  %24 = getelementptr inbounds nuw %struct.Kit_Graph_t_, ptr %23, i32 0, i32 4
  store ptr %22, ptr %24, align 8, !tbaa !16
  %25 = load ptr, ptr %3, align 8, !tbaa !7
  %26 = getelementptr inbounds nuw %struct.Kit_Graph_t_, ptr %25, i32 0, i32 4
  %27 = load ptr, ptr %26, align 8, !tbaa !16
  %28 = load ptr, ptr %3, align 8, !tbaa !7
  %29 = getelementptr inbounds nuw %struct.Kit_Graph_t_, ptr %28, i32 0, i32 2
  %30 = load i32, ptr %29, align 8, !tbaa !14
  %31 = sext i32 %30 to i64
  %32 = mul i64 24, %31
  call void @llvm.memset.p0.i64(ptr align 8 %27, i8 0, i64 %32, i1 false)
  %33 = load ptr, ptr %3, align 8, !tbaa !7
  call void @llvm.lifetime.end.p0(i64 8, ptr %3) #13
  ret ptr %33
}

; Function Attrs: nounwind uwtable
define ptr @Kit_GraphCreateLeaf(i32 noundef %0, i32 noundef %1, i32 noundef %2) #0 {
  %4 = alloca i32, align 4
  %5 = alloca i32, align 4
  %6 = alloca i32, align 4
  %7 = alloca ptr, align 8
  store i32 %0, ptr %4, align 4, !tbaa !3
  store i32 %1, ptr %5, align 4, !tbaa !3
  store i32 %2, ptr %6, align 4, !tbaa !3
  call void @llvm.lifetime.start.p0(i64 8, ptr %7) #13
  %8 = load i32, ptr %5, align 4, !tbaa !3
  %9 = call ptr @Kit_GraphCreate(i32 noundef %8)
  store ptr %9, ptr %7, align 8, !tbaa !7
  %10 = load i32, ptr %4, align 4, !tbaa !3
  %11 = load ptr, ptr %7, align 8, !tbaa !7
  %12 = getelementptr inbounds nuw %struct.Kit_Graph_t_, ptr %11, i32 0, i32 5
  %13 = load i32, ptr %12, align 8
  %14 = and i32 %10, 1073741823
  %15 = shl i32 %14, 1
  %16 = and i32 %13, -2147483647
  %17 = or i32 %16, %15
  store i32 %17, ptr %12, align 8
  %18 = load i32, ptr %6, align 4, !tbaa !3
  %19 = load ptr, ptr %7, align 8, !tbaa !7
  %20 = getelementptr inbounds nuw %struct.Kit_Graph_t_, ptr %19, i32 0, i32 5
  %21 = load i32, ptr %20, align 8
  %22 = and i32 %18, 1
  %23 = and i32 %21, -2
  %24 = or i32 %23, %22
  store i32 %24, ptr %20, align 8
  %25 = load ptr, ptr %7, align 8, !tbaa !7
  call void @llvm.lifetime.end.p0(i64 8, ptr %7) #13
  ret ptr %25
}