; Function Attrs: mustprogress nofree nounwind willreturn memory(write, argmem: none, inaccessiblemem: readwrite) uwtable
define noalias noundef ptr @Kit_GraphCreateLeaf(i32 noundef %0, i32 noundef %1, i32 noundef %2) local_unnamed_addr #0 {
  %calloc.i = tail call dereferenceable_or_null(32) ptr @calloc(i64 1, i64 32)
  %4 = getelementptr inbounds nuw i8, ptr %calloc.i, i64 4
  store i32 %1, ptr %4, align 4, !tbaa !3
  %5 = getelementptr inbounds nuw i8, ptr %calloc.i, i64 8
  store i32 %1, ptr %5, align 8, !tbaa !11
  %6 = shl nsw i32 %1, 1
  %7 = add nsw i32 %6, 50
  %8 = getelementptr inbounds nuw i8, ptr %calloc.i, i64 12
  store i32 %7, ptr %8, align 4, !tbaa !12
  %9 = sext i32 %7 to i64
  %10 = mul nsw i64 %9, 24
  %11 = tail call noalias ptr @malloc(i64 noundef %10) #20
  %12 = getelementptr inbounds nuw i8, ptr %calloc.i, i64 16
  store ptr %11, ptr %12, align 8, !tbaa !13
  %13 = sext i32 %1 to i64
  %14 = mul nsw i64 %13, 24
  tail call void @llvm.memset.p0.i64(ptr align 8 %11, i8 0, i64 %14, i1 false)
  %15 = getelementptr inbounds nuw i8, ptr %calloc.i, i64 24
  %16 = shl i32 %0, 1
  %17 = and i32 %16, 2147483646
  %18 = and i32 %2, 1
  %19 = or disjoint i32 %18, %17
  store i32 %19, ptr %15, align 8
  ret ptr %calloc.i
}